; ModuleID = '17/1408.c'
source_filename = "17/1408.c"
target datalayout = "e-m:e-p270:32:32-p271:32:32-p272:64:64-i64:64-f80:128-n8:16:32:64-S128"
target triple = "x86_64-pc-linux-gnu"

@.str = private unnamed_addr constant [3 x i8] c"%s\00", align 1
@.str.1 = private unnamed_addr constant [4 x i8] c"%s\0A\00", align 1

; Function Attrs: noinline nounwind uwtable
define dso_local i32 @main() #0 {
  %1 = alloca i32, align 4
  %2 = alloca i32, align 4
  %3 = alloca i32, align 4
  %4 = alloca i32, align 4
  %5 = alloca i32, align 4
  %6 = alloca i32, align 4
  %7 = alloca [105 x i8], align 16
  %8 = alloca [105 x i8], align 16
  %9 = alloca [105 x i8], align 16
  %10 = alloca i32, align 4
  store i32 0, i32* %1, align 4
  store i32 0, i32* %5, align 4
  br label %11

11:                                               ; preds = %129, %0
  %12 = getelementptr inbounds [105 x i8], [105 x i8]* %7, i64 0, i64 0
  %13 = call i32 (i8*, ...) @__isoc99_scanf(i8* getelementptr inbounds ([3 x i8], [3 x i8]* @.str, i64 0, i64 0), i8* %12)
  %14 = icmp ne i32 %13, -1
  br i1 %14, label %15, label %134

15:                                               ; preds = %11
  store i32 0, i32* %10, align 4
  %16 = getelementptr inbounds [105 x i8], [105 x i8]* %8, i64 0, i64 0
  %17 = getelementptr inbounds [105 x i8], [105 x i8]* %7, i64 0, i64 0
  %18 = call i8* @strcpy(i8* %16, i8* %17) #4
  %19 = getelementptr inbounds [105 x i8], [105 x i8]* %9, i64 0, i64 0
  %20 = getelementptr inbounds [105 x i8], [105 x i8]* %7, i64 0, i64 0
  %21 = call i8* @strcpy(i8* %19, i8* %20) #4
  %22 = getelementptr inbounds [105 x i8], [105 x i8]* %7, i64 0, i64 0
  %23 = call i64 @strlen(i8* %22) #5
  %24 = trunc i64 %23 to i32
  store i32 %24, i32* %3, align 4
  store i32 0, i32* %2, align 4
  br label %25

25:                                               ; preds = %94, %15
  %26 = load i32, i32* %2, align 4
  %27 = load i32, i32* %3, align 4
  %28 = icmp slt i32 %26, %27
  br i1 %28, label %29, label %97

29:                                               ; preds = %25
  %30 = load i32, i32* %2, align 4
  %31 = sext i32 %30 to i64
  %32 = getelementptr inbounds [105 x i8], [105 x i8]* %7, i64 0, i64 %31
  %33 = load i8, i8* %32, align 1
  %34 = sext i8 %33 to i32
  %35 = icmp ne i32 %34, 40
  br i1 %35, label %36, label %47

36:                                               ; preds = %29
  %37 = load i32, i32* %2, align 4
  %38 = sext i32 %37 to i64
  %39 = getelementptr inbounds [105 x i8], [105 x i8]* %7, i64 0, i64 %38
  %40 = load i8, i8* %39, align 1
  %41 = sext i8 %40 to i32
  %42 = icmp ne i32 %41, 41
  br i1 %42, label %43, label %47

43:                                               ; preds = %36
  %44 = load i32, i32* %2, align 4
  %45 = sext i32 %44 to i64
  %46 = getelementptr inbounds [105 x i8], [105 x i8]* %8, i64 0, i64 %45
  store i8 32, i8* %46, align 1
  br label %93

47:                                               ; preds = %36, %29
  %48 = load i32, i32* %2, align 4
  %49 = sext i32 %48 to i64
  %50 = getelementptr inbounds [105 x i8], [105 x i8]* %7, i64 0, i64 %49
  %51 = load i8, i8* %50, align 1
  %52 = sext i8 %51 to i32
  %53 = icmp eq i32 %52, 41
  br i1 %53, label %54, label %92

54:                                               ; preds = %47
  %55 = load i32, i32* %2, align 4
  %56 = sub nsw i32 %55, 1
  store i32 %56, i32* %4, align 4
  br label %57

57:                                               ; preds = %81, %54
  %58 = load i32, i32* %4, align 4
  %59 = icmp sge i32 %58, 0
  br i1 %59, label %60, label %84

60:                                               ; preds = %57
  %61 = load i32, i32* %4, align 4
  %62 = sext i32 %61 to i64
  %63 = getelementptr inbounds [105 x i8], [105 x i8]* %7, i64 0, i64 %62
  %64 = load i8, i8* %63, align 1
  %65 = sext i8 %64 to i32
  %66 = icmp eq i32 %65, 40
  br i1 %66, label %67, label %80

67:                                               ; preds = %60
  store i32 1, i32* %10, align 4
  %68 = load i32, i32* %2, align 4
  %69 = sext i32 %68 to i64
  %70 = getelementptr inbounds [105 x i8], [105 x i8]* %7, i64 0, i64 %69
  store i8 32, i8* %70, align 1
  %71 = load i32, i32* %2, align 4
  %72 = sext i32 %71 to i64
  %73 = getelementptr inbounds [105 x i8], [105 x i8]* %8, i64 0, i64 %72
  store i8 32, i8* %73, align 1
  %74 = load i32, i32* %4, align 4
  %75 = sext i32 %74 to i64
  %76 = getelementptr inbounds [105 x i8], [105 x i8]* %8, i64 0, i64 %75
  store i8 32, i8* %76, align 1
  %77 = load i32, i32* %4, align 4
  %78 = sext i32 %77 to i64
  %79 = getelementptr inbounds [105 x i8], [105 x i8]* %7, i64 0, i64 %78
  store i8 32, i8* %79, align 1
  br label %84

80:                                               ; preds = %60
  br label %81

81:                                               ; preds = %80
  %82 = load i32, i32* %4, align 4
  %83 = add nsw i32 %82, -1
  store i32 %83, i32* %4, align 4
  br label %57

84:                                               ; preds = %67, %57
  %85 = load i32, i32* %10, align 4
  %86 = icmp eq i32 %85, 0
  br i1 %86, label %87, label %91

87:                                               ; preds = %84
  %88 = load i32, i32* %2, align 4
  %89 = sext i32 %88 to i64
  %90 = getelementptr inbounds [105 x i8], [105 x i8]* %8, i64 0, i64 %89
  store i8 63, i8* %90, align 1
  br label %91

91:                                               ; preds = %87, %84
  br label %92

92:                                               ; preds = %91, %47
  br label %93

93:                                               ; preds = %92, %43
  br label %94

94:                                               ; preds = %93
  %95 = load i32, i32* %2, align 4
  %96 = add nsw i32 %95, 1
  store i32 %96, i32* %2, align 4
  br label %25

97:                                               ; preds = %25
  store i32 0, i32* %2, align 4
  br label %98

98:                                               ; preds = %126, %97
  %99 = load i32, i32* %2, align 4
  %100 = load i32, i32* %3, align 4
  %101 = icmp slt i32 %99, %100
  br i1 %101, label %102, label %129

102:                                              ; preds = %98
  %103 = load i32, i32* %2, align 4
  %104 = sext i32 %103 to i64
  %105 = getelementptr inbounds [105 x i8], [105 x i8]* %8, i64 0, i64 %104
  %106 = load i8, i8* %105, align 1
  %107 = sext i8 %106 to i32
  %108 = icmp eq i32 %107, 40
  br i1 %108, label %109, label %113

109:                                              ; preds = %102
  %110 = load i32, i32* %2, align 4
  %111 = sext i32 %110 to i64
  %112 = getelementptr inbounds [105 x i8], [105 x i8]* %8, i64 0, i64 %111
  store i8 36, i8* %112, align 1
  br label %125

113:                                              ; preds = %102
  %114 = load i32, i32* %2, align 4
  %115 = sext i32 %114 to i64
  %116 = getelementptr inbounds [105 x i8], [105 x i8]* %8, i64 0, i64 %115
  %117 = load i8, i8* %116, align 1
  %118 = sext i8 %117 to i32
  %119 = icmp eq i32 %118, 41
  br i1 %119, label %120, label %124

120:                                              ; preds = %113
  %121 = load i32, i32* %2, align 4
  %122 = sext i32 %121 to i64
  %123 = getelementptr inbounds [105 x i8], [105 x i8]* %8, i64 0, i64 %122
  store i8 63, i8* %123, align 1
  br label %124

124:                                              ; preds = %120, %113
  br label %125

125:                                              ; preds = %124, %109
  br label %126

126:                                              ; preds = %125
  %127 = load i32, i32* %2, align 4
  %128 = add nsw i32 %127, 1
  store i32 %128, i32* %2, align 4
  br label %98

129:                                              ; preds = %98
  %130 = getelementptr inbounds [105 x i8], [105 x i8]* %9, i64 0, i64 0
  %131 = call i32 (i8*, ...) @printf(i8* getelementptr inbounds ([4 x i8], [4 x i8]* @.str.1, i64 0, i64 0), i8* %130)
  %132 = getelementptr inbounds [105 x i8], [105 x i8]* %8, i64 0, i64 0
  %133 = call i32 (i8*, ...) @printf(i8* getelementptr inbounds ([4 x i8], [4 x i8]* @.str.1, i64 0, i64 0), i8* %132)
  br label %11

134:                                              ; preds = %11
  ret i32 0
}

declare dso_local i32 @__isoc99_scanf(i8*, ...) #1

; Function Attrs: nounwind
declare dso_local i8* @strcpy(i8*, i8*) #2

; Function Attrs: nounwind readonly
declare dso_local i64 @strlen(i8*) #3

declare dso_local i32 @printf(i8*, ...) #1


!llvm.module.flags = !{!0}
!llvm.ident = !{!1}

!0 = !{i32 1, !"wchar_size", i32 4}
!1 = !{!"clang version 10.0.0-4ubuntu1 "}
